target datalayout = "e-m:e-p270:32:32-p271:32:32-p272:64:64-i64:64-i128:128-f80:128-n8:16:32:64-S128"
target triple = "x86_64-pc-linux-gnu"

%struct.pmix_list_t = type { %struct.pmix_object_t, %struct.pmix_list_item_t, i64 }
%struct.pmix_object_t = type { %union.pthread_mutex_t, ptr, i32, %struct.pmix_tma }
%union.pthread_mutex_t = type { %struct.__pthread_mutex_s }
%struct.__pthread_mutex_s = type { i32, i32, i32, i32, i32, i16, i16, %struct.__pthread_internal_list }
%struct.__pthread_internal_list = type { ptr, ptr }
%struct.pmix_tma = type { ptr, ptr, ptr, ptr, ptr, ptr, ptr, ptr }
%struct.pmix_list_item_t = type { %struct.pmix_object_t, ptr, ptr, i32 }
%struct.pmix_info = type { [512 x i8], i32, %struct.pmix_value }
%struct.pmix_value = type { i16, %union.anon }
%union.anon = type { %struct.pmix_envar_t }
%struct.pmix_envar_t = type { ptr, ptr, i8 }
%struct.pmix_peer_t = type { %struct.pmix_object_t, ptr, ptr, %struct.pmix_proc_type_t, i16, i32, i32, i32, i8, %struct.event, i8, %struct.event, i8, %struct.pmix_list_t, ptr, ptr, i32, %struct.pmix_epilog_t }
%struct.pmix_proc_type_t = type { i32, i8, i8, i8, i8 }
%struct.event = type { %struct.event_callback, %union.anon.1, i32, ptr, %union.anon.3, i16, i16, %struct.timeval }
%struct.event_callback = type { %struct.anon, i16, i8, i8, %union.anon.0, ptr }
%struct.anon = type { ptr, ptr }
%union.anon.0 = type { ptr }
%union.anon.1 = type { %struct.anon.2 }
%struct.anon.2 = type { ptr, ptr }
%union.anon.3 = type { %struct.anon.4 }
%struct.anon.4 = type { %struct.anon.5, %struct.timeval }
%struct.anon.5 = type { ptr, ptr }
%struct.timeval = type { i64, i64 }
%struct.pmix_epilog_t = type { i32, i32, %struct.pmix_list_t, %struct.pmix_list_t, %struct.pmix_list_t }
%struct.pmix_byte_object = type { ptr, i64 }

@.str = private unnamed_addr constant [7 x i8] c"native\00", align 1
@.str.3 = private unnamed_addr constant [15 x i8] c"pmix.sec.ctype\00", align 1
@.str.4 = private unnamed_addr constant [37 x i8] c"PMIX ERROR: %s in file %s at line %d\00", align 1
@.str.5 = private unnamed_addr constant [14 x i8] c"psec_native.c\00", align 1

; Function Attrs: nounwind uwtable
define internal i32 @create_cred(ptr noundef %0, ptr noundef %1, i64 noundef %2, ptr noundef %3, ptr noundef %4, ptr noundef %5) #0 {
  %7 = alloca i32, align 4
  %8 = alloca ptr, align 8
  %9 = alloca ptr, align 8
  %10 = alloca i64, align 8
  %11 = alloca ptr, align 8
  %12 = alloca ptr, align 8
  %13 = alloca ptr, align 8
  %14 = alloca ptr, align 8
  %15 = alloca ptr, align 8
  %16 = alloca i64, align 8
  %17 = alloca i64, align 8
  %18 = alloca i8, align 1
  %19 = alloca i32, align 4
  %20 = alloca i32, align 4
  %21 = alloca ptr, align 8
  %22 = alloca ptr, align 8
  %23 = alloca i32, align 4
  store ptr %0, ptr %8, align 8, !tbaa !21
  store ptr %1, ptr %9, align 8, !tbaa !23
  store i64 %2, ptr %10, align 8, !tbaa !25
  store ptr %3, ptr %11, align 8, !tbaa !26
  store ptr %4, ptr %12, align 8, !tbaa !28
  store ptr %5, ptr %13, align 8, !tbaa !30
  call void @llvm.lifetime.start.p0(i64 8, ptr %14) #8
  %24 = load ptr, ptr %8, align 8, !tbaa !21
  store ptr %24, ptr %14, align 8, !tbaa !21
  call void @llvm.lifetime.start.p0(i64 8, ptr %15) #8
  call void @llvm.lifetime.start.p0(i64 8, ptr %16) #8
  call void @llvm.lifetime.start.p0(i64 8, ptr %17) #8
  call void @llvm.lifetime.start.p0(i64 1, ptr %18) #8
  call void @llvm.lifetime.start.p0(i64 4, ptr %19) #8
  call void @llvm.lifetime.start.p0(i64 4, ptr %20) #8
  call void @llvm.lifetime.start.p0(i64 8, ptr %21) #8
  call void @llvm.lifetime.start.p0(i64 8, ptr %22) #8
  %25 = load ptr, ptr %13, align 8, !tbaa !30
  call void @PMIx_Byte_object_construct(ptr noundef %25)
  %26 = load ptr, ptr %9, align 8, !tbaa !23
  %27 = icmp ne ptr null, %26
  br i1 %27, label %28, label %85

28:                                               ; preds = %6
  %29 = load i64, ptr %10, align 8, !tbaa !25
  %30 = icmp ult i64 0, %29
  br i1 %30, label %31, label %85

31:                                               ; preds = %28
  store i8 1, ptr %18, align 1, !tbaa !32
  store i64 0, ptr %16, align 8, !tbaa !25
  br label %32

32:                                               ; preds = %73, %31
  %33 = load i64, ptr %16, align 8, !tbaa !25
  %34 = load i64, ptr %10, align 8, !tbaa !25
  %35 = icmp ult i64 %33, %34
  br i1 %35, label %36, label %76

36:                                               ; preds = %32
  %37 = load ptr, ptr %9, align 8, !tbaa !23
  %38 = load i64, ptr %16, align 8, !tbaa !25
  %39 = getelementptr inbounds nuw %struct.pmix_info, ptr %37, i64 %38
  %40 = getelementptr inbounds nuw %struct.pmix_info, ptr %39, i32 0, i32 0
  %41 = getelementptr inbounds [512 x i8], ptr %40, i64 0, i64 0
  %42 = call i32 @strncmp(ptr noundef %41, ptr noundef @.str.3, i64 noundef 511) #9
  %43 = icmp eq i32 0, %42
  br i1 %43, label %44, label %72

44:                                               ; preds = %36
  %45 = load ptr, ptr %9, align 8, !tbaa !23
  %46 = load i64, ptr %16, align 8, !tbaa !25
  %47 = getelementptr inbounds nuw %struct.pmix_info, ptr %45, i64 %46
  %48 = getelementptr inbounds nuw %struct.pmix_info, ptr %47, i32 0, i32 2
  %49 = getelementptr inbounds nuw %struct.pmix_value, ptr %48, i32 0, i32 1
  %50 = load ptr, ptr %49, align 8, !tbaa !33
  %51 = call ptr @PMIx_Argv_split(ptr noundef %50, i32 noundef 44)
  store ptr %51, ptr %15, align 8, !tbaa !34
  store i8 0, ptr %18, align 1, !tbaa !32
  store i64 0, ptr %17, align 8, !tbaa !25
  br label %52

52:                                               ; preds = %67, %44
  %53 = load ptr, ptr %15, align 8, !tbaa !34
  %54 = load i64, ptr %17, align 8, !tbaa !25
  %55 = getelementptr inbounds nuw ptr, ptr %53, i64 %54
  %56 = load ptr, ptr %55, align 8, !tbaa !36
  %57 = icmp ne ptr null, %56
  br i1 %57, label %58, label %70

58:                                               ; preds = %52
  %59 = load ptr, ptr %15, align 8, !tbaa !34
  %60 = load i64, ptr %17, align 8, !tbaa !25
  %61 = getelementptr inbounds nuw ptr, ptr %59, i64 %60
  %62 = load ptr, ptr %61, align 8, !tbaa !36
  %63 = call i32 @strcmp(ptr noundef %62, ptr noundef @.str) #9
  %64 = icmp eq i32 0, %63
  br i1 %64, label %65, label %66

65:                                               ; preds = %58
  store i8 1, ptr %18, align 1, !tbaa !32
  br label %70

66:                                               ; preds = %58
  br label %67

67:                                               ; preds = %66
  %68 = load i64, ptr %17, align 8, !tbaa !25
  %69 = add i64 %68, 1
  store i64 %69, ptr %17, align 8, !tbaa !25
  br label %52, !llvm.loop !37

70:                                               ; preds = %65, %52
  %71 = load ptr, ptr %15, align 8, !tbaa !34
  call void @PMIx_Argv_free(ptr noundef %71)
  br label %76

72:                                               ; preds = %36
  br label %73

73:                                               ; preds = %72
  %74 = load i64, ptr %16, align 8, !tbaa !25
  %75 = add i64 %74, 1
  store i64 %75, ptr %16, align 8, !tbaa !25
  br label %32, !llvm.loop !39

76:                                               ; preds = %70, %32
  %77 = load i8, ptr %18, align 1, !tbaa !32, !range !40, !noundef !41
  %78 = trunc i8 %77 to i1
  br i1 %78, label %84, label %79

79:                                               ; preds = %76
  br label %80

80:                                               ; preds = %79
  %81 = call ptr @PMIx_Error_string(i32 noundef -47)
  call void (i32, ptr, ...) @pmix_output(i32 noundef 0, ptr noundef @.str.4, ptr noundef %81, ptr noundef @.str.5, i32 noundef 97)
  br label %82

82:                                               ; preds = %80
  br label %83

83:                                               ; preds = %82
  store i32 -47, ptr %7, align 4
  store i32 1, ptr %23, align 4
  br label %137

84:                                               ; preds = %76
  br label %85

85:                                               ; preds = %84, %28, %6
  %86 = load ptr, ptr %14, align 8, !tbaa !21
  %87 = getelementptr inbounds nuw %struct.pmix_peer_t, ptr %86, i32 0, i32 4
  %88 = load i16, ptr %87, align 8, !tbaa !42
  %89 = zext i16 %88 to i32
  %90 = icmp eq i32 1, %89
  br i1 %90, label %91, label %92

91:                                               ; preds = %85
  br label %120

92:                                               ; preds = %85
  %93 = load ptr, ptr %14, align 8, !tbaa !21
  %94 = getelementptr inbounds nuw %struct.pmix_peer_t, ptr %93, i32 0, i32 4
  %95 = load i16, ptr %94, align 8, !tbaa !42
  %96 = zext i16 %95 to i32
  %97 = icmp eq i32 2, %96
  br i1 %97, label %98, label %115

98:                                               ; preds = %92
  %99 = call noalias ptr @malloc(i64 noundef 8) #10
  store ptr %99, ptr %21, align 8, !tbaa !36
  %100 = load ptr, ptr %21, align 8, !tbaa !36
  %101 = icmp eq ptr null, %100
  br i1 %101, label %102, label %103

102:                                              ; preds = %98
  store i32 -32, ptr %7, align 4
  store i32 1, ptr %23, align 4
  br label %137

103:                                              ; preds = %98
  %104 = call i32 @geteuid() #8
  store i32 %104, ptr %19, align 4, !tbaa !55
  %105 = load ptr, ptr %21, align 8, !tbaa !36
  call void @llvm.memcpy.p0.p0.i64(ptr align 1 %105, ptr align 4 %19, i64 4, i1 false)
  %106 = load ptr, ptr %21, align 8, !tbaa !36
  %107 = getelementptr inbounds nuw i8, ptr %106, i64 4
  store ptr %107, ptr %22, align 8, !tbaa !36
  %108 = call i32 @getegid() #8
  store i32 %108, ptr %20, align 4, !tbaa !55
  %109 = load ptr, ptr %22, align 8, !tbaa !36
  call void @llvm.memcpy.p0.p0.i64(ptr align 1 %109, ptr align 4 %20, i64 4, i1 false)
  %110 = load ptr, ptr %21, align 8, !tbaa !36
  %111 = load ptr, ptr %13, align 8, !tbaa !30
  %112 = getelementptr inbounds nuw %struct.pmix_byte_object, ptr %111, i32 0, i32 0
  store ptr %110, ptr %112, align 8, !tbaa !56
  %113 = load ptr, ptr %13, align 8, !tbaa !30
  %114 = getelementptr inbounds nuw %struct.pmix_byte_object, ptr %113, i32 0, i32 1
  store i64 8, ptr %114, align 8, !tbaa !58
  br label %120

115:                                              ; preds = %92
  br label %116

116:                                              ; preds = %115
  %117 = call ptr @PMIx_Error_string(i32 noundef -47)
  call void (i32, ptr, ...) @pmix_output(i32 noundef 0, ptr noundef @.str.4, ptr noundef %117, ptr noundef @.str.5, i32 noundef 122)
  br label %118

118:                                              ; preds = %116
  br label %119

119:                                              ; preds = %118
  store i32 -47, ptr %7, align 4
  store i32 1, ptr %23, align 4
  br label %137

120:                                              ; preds = %103, %91
  %121 = load ptr, ptr %11, align 8, !tbaa !26
  %122 = icmp ne ptr null, %121
  br i1 %122, label %123, label %136

123:                                              ; preds = %120
  %124 = call ptr @PMIx_Info_create(i64 noundef 1)
  %125 = load ptr, ptr %11, align 8, !tbaa !26
  store ptr %124, ptr %125, align 8, !tbaa !23
  %126 = load ptr, ptr %11, align 8, !tbaa !26
  %127 = load ptr, ptr %126, align 8, !tbaa !23
  %128 = icmp eq ptr null, %127
  br i1 %128, label %129, label %130

129:                                              ; preds = %123
  store i32 -32, ptr %7, align 4
  store i32 1, ptr %23, align 4
  br label %137

130:                                              ; preds = %123
  %131 = load ptr, ptr %12, align 8, !tbaa !28
  store i64 1, ptr %131, align 8, !tbaa !25
  %132 = load ptr, ptr %11, align 8, !tbaa !26
  %133 = getelementptr inbounds ptr, ptr %132, i64 0
  %134 = load ptr, ptr %133, align 8, !tbaa !23
  %135 = call i32 @PMIx_Info_load(ptr noundef %134, ptr noundef @.str.3, ptr noundef @.str, i16 noundef zeroext 3)
  br label %136

136:                                              ; preds = %130, %120
  store i32 0, ptr %7, align 4
  store i32 1, ptr %23, align 4
  br label %137

137:                                              ; preds = %136, %129, %119, %102, %83
  call void @llvm.lifetime.end.p0(i64 8, ptr %22) #8
  call void @llvm.lifetime.end.p0(i64 8, ptr %21) #8
  call void @llvm.lifetime.end.p0(i64 4, ptr %20) #8
  call void @llvm.lifetime.end.p0(i64 4, ptr %19) #8
  call void @llvm.lifetime.end.p0(i64 1, ptr %18) #8
  call void @llvm.lifetime.end.p0(i64 8, ptr %17) #8
  call void @llvm.lifetime.end.p0(i64 8, ptr %16) #8
  call void @llvm.lifetime.end.p0(i64 8, ptr %15) #8
  call void @llvm.lifetime.end.p0(i64 8, ptr %14) #8
  %138 = load i32, ptr %7, align 4
  ret i32 %138
}