; Function Attrs: nounwind uwtable
define internal range(i32 -47, 1) i32 @create_cred(ptr noundef readonly captures(none) %0, ptr noundef readonly captures(address_is_null) %1, i64 noundef %2, ptr noundef writeonly captures(address_is_null) %3, ptr noundef writeonly captures(none) %4, ptr noundef %5) #0 {
  tail call void @PMIx_Byte_object_construct(ptr noundef %5) #7
  %7 = icmp ne ptr %1, null
  %8 = icmp ne i64 %2, 0
  %or.cond = and i1 %7, %8
  br i1 %or.cond, label %.preheader, label %.critedge

9:                                                ; preds = %.preheader
  %10 = add nuw i64 %.03446, 1
  %exitcond.not = icmp eq i64 %10, %2
  br i1 %exitcond.not, label %.critedge, label %.preheader, !llvm.loop !21

.preheader:                                       ; preds = %6, %9
  %.03446 = phi i64 [ %10, %9 ], [ 0, %6 ]
  %11 = getelementptr inbounds nuw %struct.pmix_info, ptr %1, i64 %.03446
  %12 = tail call i32 @strncmp(ptr noundef nonnull dereferenceable(1) %11, ptr noundef nonnull dereferenceable(15) @.str.3, i64 noundef 511) #8
  %13 = icmp eq i32 %12, 0
  br i1 %13, label %14, label %9

14:                                               ; preds = %.preheader
  %15 = getelementptr inbounds nuw i8, ptr %11, i64 528
  %16 = load ptr, ptr %15, align 8, !tbaa !23
  %17 = tail call ptr @PMIx_Argv_split(ptr noundef %16, i32 noundef 44) #7
  %18 = load ptr, ptr %17, align 8, !tbaa !24
  %.not.not47 = icmp eq ptr %18, null
  br i1 %.not.not47, label %._crit_edge, label %.lr.ph

19:                                               ; preds = %.lr.ph
  %20 = add i64 %.03548, 1
  %21 = getelementptr inbounds nuw ptr, ptr %17, i64 %20
  %22 = load ptr, ptr %21, align 8, !tbaa !24
  %.not.not = icmp eq ptr %22, null
  br i1 %.not.not, label %._crit_edge, label %.lr.ph, !llvm.loop !25

.lr.ph:                                           ; preds = %14, %19
  %23 = phi ptr [ %22, %19 ], [ %18, %14 ]
  %.03548 = phi i64 [ %20, %19 ], [ 0, %14 ]
  %24 = tail call i32 @strcmp(ptr noundef nonnull dereferenceable(1) %23, ptr noundef nonnull dereferenceable(7) @.str) #8
  %25 = icmp eq i32 %24, 0
  br i1 %25, label %26, label %19

26:                                               ; preds = %.lr.ph
  tail call void @PMIx_Argv_free(ptr noundef nonnull %17) #7
  br label %.critedge

._crit_edge:                                      ; preds = %19, %14
  tail call void @PMIx_Argv_free(ptr noundef nonnull %17) #7
  %27 = tail call ptr @PMIx_Error_string(i32 noundef -47) #7
  tail call void (i32, ptr, ...) @pmix_output(i32 noundef 0, ptr noundef nonnull @.str.4, ptr noundef %27, ptr noundef nonnull @.str.5, i32 noundef 97) #7
  br label %46

.critedge:                                        ; preds = %9, %26, %6
  %28 = getelementptr inbounds nuw i8, ptr %0, i64 144
  %29 = load i16, ptr %28, align 8, !tbaa !26
  switch i16 %29, label %38 [
    i16 1, label %40
    i16 2, label %30
  ]

30:                                               ; preds = %.critedge
  %31 = tail call noalias dereferenceable_or_null(8) ptr @malloc(i64 noundef 8) #9
  %32 = icmp eq ptr %31, null
  br i1 %32, label %46, label %33

33:                                               ; preds = %30
  %34 = tail call i32 @geteuid() #7
  store i32 %34, ptr %31, align 1
  %35 = getelementptr inbounds nuw i8, ptr %31, i64 4
  %36 = tail call i32 @getegid() #7
  store i32 %36, ptr %35, align 1
  store ptr %31, ptr %5, align 8, !tbaa !39
  %37 = getelementptr inbounds nuw i8, ptr %5, i64 8
  store i64 8, ptr %37, align 8, !tbaa !41
  br label %40

38:                                               ; preds = %.critedge
  %39 = tail call ptr @PMIx_Error_string(i32 noundef -47) #7
  tail call void (i32, ptr, ...) @pmix_output(i32 noundef 0, ptr noundef nonnull @.str.4, ptr noundef %39, ptr noundef nonnull @.str.5, i32 noundef 122) #7
  br label %46

40:                                               ; preds = %.critedge, %33
  %.not43 = icmp eq ptr %3, null
  br i1 %.not43, label %46, label %41

41:                                               ; preds = %40
  %42 = tail call ptr @PMIx_Info_create(i64 noundef 1) #7
  store ptr %42, ptr %3, align 8, !tbaa !42
  %43 = icmp eq ptr %42, null
  br i1 %43, label %46, label %44

44:                                               ; preds = %41
  store i64 1, ptr %4, align 8, !tbaa !44
  %45 = tail call i32 @PMIx_Info_load(ptr noundef nonnull %42, ptr noundef nonnull @.str.3, ptr noundef nonnull @.str, i16 noundef zeroext 3) #7
  br label %46

46:                                               ; preds = %40, %44, %41, %30, %38, %._crit_edge
  %.0 = phi i32 [ -47, %38 ], [ -47, %._crit_edge ], [ -32, %30 ], [ -32, %41 ], [ 0, %44 ], [ 0, %40 ]
  ret i32 %.0
}